Archive member included because of file (symbol)

/Users/tal/devkitPro/devkitARM/bin/../lib/gcc/arm-none-eabi/4.7.1/be/libgcc.a(_udivsi3.o)
                              vsprintf.o (__aeabi_uidiv)
/Users/tal/devkitPro/devkitARM/bin/../lib/gcc/arm-none-eabi/4.7.1/be/libgcc.a(_divsi3.o)
                              vsprintf.o (__aeabi_idiv)
/Users/tal/devkitPro/devkitARM/bin/../lib/gcc/arm-none-eabi/4.7.1/be/libgcc.a(_dvmd_tls.o)
                              /Users/tal/devkitPro/devkitARM/bin/../lib/gcc/arm-none-eabi/4.7.1/be/libgcc.a(_udivsi3.o) (__aeabi_idiv0)

Allocating common symbols
Common symbol       size              file

__aeabi_unwind_cpp_pr0
                    0x0               ldhack.o
otp                 0x80              crypto.o
seeprom             0x100             crypto.o
sc_host             0x2c              sdhc.o
fatfs               0x224             main.o

Discarded input sections

 .text          0x00000000        0x0 start.o
 .data          0x00000000        0x0 start.o
 .bss           0x00000000        0x0 start.o
 .text          0x00000000        0x0 main.o
 .data          0x00000000        0x0 main.o
 .bss           0x00000000        0x0 main.o
 .text          0x00000000        0x0 ipc.o
 .data          0x00000000        0x0 ipc.o
 .text.ipc_flush
                0x00000000       0x20 ipc.o
 .text          0x00000000        0x0 vsprintf.o
 .data          0x00000000        0x0 vsprintf.o
 .bss           0x00000000        0x0 vsprintf.o
 .text          0x00000000        0x0 string.o
 .data          0x00000000        0x0 string.o
 .bss           0x00000000        0x0 string.o
 .text.strlen   0x00000000       0x20 string.o
 .text.strcmp   0x00000000       0x30 string.o
 .text.strncmp  0x00000000       0x50 string.o
 .text.strlcat  0x00000000       0x34 string.o
 .text.strchr   0x00000000       0x30 string.o
 .text.strspn   0x00000000       0x48 string.o
 .text.strcspn  0x00000000       0x3c string.o
 .text          0x00000000        0x0 gecko.o
 .data          0x00000000        0x0 gecko.o
 .text.gecko_enable_console
                0x00000000       0x50 gecko.o
 .text          0x00000000        0x0 memory.o
 .data          0x00000000        0x0 memory.o
 .bss           0x00000000        0x0 memory.o
 .text.ic_invalidateall
                0x00000000       0x24 memory.o
 .text.mem_setswap
                0x00000000       0x38 memory.o
 .data          0x00000000        0x0 memory_asm.o
 .bss           0x00000000        0x0 memory_asm.o
 .data          0x00000000        0x0 utils_asm.o
 .bss           0x00000000        0x0 utils_asm.o
 .text          0x00000000        0x0 utils.o
 .data          0x00000000        0x0 utils.o
 .bss           0x00000000        0x0 utils.o
 .text.hexdump  0x00000000       0xe0 utils.o
 .text.sprintf  0x00000000       0x24 utils.o
 .text.panic    0x00000000       0x54 utils.o
 .text.flashSensor
                0x00000000       0x48 utils.o
 .rodata.str1.1
                0x00000000       0x18 utils.o
 .text          0x00000000        0x0 ff.o
 .data          0x00000000        0x0 ff.o
 .text.f_close  0x00000000       0x20 ff.o
 .text          0x00000000        0x0 diskio.o
 .data          0x00000000        0x0 diskio.o
 .bss           0x00000000        0x0 diskio.o
 .text          0x00000000        0x0 sdhc.o
 .data          0x00000000        0x0 sdhc.o
 .bss           0x00000000        0x0 sdhc.o
 .text.sdhc_card_intr_mask
                0x00000000       0xa8 sdhc.o
 .text.sdhc_card_intr_ack
                0x00000000       0x30 sdhc.o
 .text          0x00000000        0x0 powerpc_elf.o
 .data          0x00000000        0x0 powerpc_elf.o
 .text.makeRelativeBranch
                0x00000000       0x18 powerpc_elf.o
 .text.makeAbsoluteBranch
                0x00000000       0x14 powerpc_elf.o
 .text          0x00000000        0x0 powerpc.o
 .data          0x00000000        0x0 powerpc.o
 .bss           0x00000000        0x0 powerpc.o
 .text          0x00000000        0x0 panic.o
 .data          0x00000000        0x0 panic.o
 .bss           0x00000000        0x0 panic.o
 .text          0x00000000        0x0 irq.o
 .data          0x00000000        0x0 irq.o
 .data          0x00000000        0x0 irq_asm.o
 .bss           0x00000000        0x0 irq_asm.o
 .text          0x00000000        0x0 exception.o
 .bss           0x00000000        0x0 exception.o
 .data          0x00000000        0x0 exception_asm.o
 .bss           0x00000000        0x0 exception_asm.o
 .text          0x00000000        0x0 seeprom.o
 .data          0x00000000        0x0 seeprom.o
 .bss           0x00000000        0x0 seeprom.o
 .text          0x00000000        0x0 crypto.o
 .data          0x00000000        0x0 crypto.o
 .text.aes_irq  0x00000000       0x14 crypto.o
 .text.aes_empty_iv
                0x00000000       0x20 crypto.o
 .text          0x00000000        0x0 nand.o
 .text.nand_send_command
                0x00000000       0x3c nand.o
 .text.nand_wait
                0x00000000       0x38 nand.o
 .text          0x00000000        0x0 boot2.o
 .data          0x00000000       0x18 boot2.o
 .bss           0x00000000       0x20 boot2.o
 .text.read_to  0x00000000       0xc8 boot2.o
 .text.boot2_load
                0x00000000      0x49c boot2.o
 .text.boot2_init
                0x00000000       0x68 boot2.o
 .text.boot2_run
                0x00000000      0x168 boot2.o
 .text.boot2_ipc
                0x00000000       0xa4 boot2.o
 .rodata.str1.1
                0x00000000      0x3c3 boot2.o
 .bss.mem2      0x00000000    0x80e00 boot2.o
 .comment       0x00000000       0x23 boot2.o
 .ARM.attributes
                0x00000000       0x34 boot2.o
 .text          0x00000000        0x0 ldhack.o
 .data          0x00000000        0x0 ldhack.o
 .bss           0x00000000        0x0 ldhack.o
 .comment       0x00000000       0x23 ldhack.o
 .ARM.attributes
                0x00000000       0x34 ldhack.o
 COMMON         0x00000000        0x0 ldhack.o
 .text          0x00000000        0x0 sdmmc.o
 .data          0x00000000        0x0 sdmmc.o
 .bss           0x00000000        0x0 sdmmc.o
 .text.sdmmc_abort
                0x00000000       0x50 sdmmc.o
 .data          0x00000000        0x0 /Users/tal/devkitPro/devkitARM/bin/../lib/gcc/arm-none-eabi/4.7.1/be/libgcc.a(_udivsi3.o)
 .bss           0x00000000        0x0 /Users/tal/devkitPro/devkitARM/bin/../lib/gcc/arm-none-eabi/4.7.1/be/libgcc.a(_udivsi3.o)
 .data          0x00000000        0x0 /Users/tal/devkitPro/devkitARM/bin/../lib/gcc/arm-none-eabi/4.7.1/be/libgcc.a(_divsi3.o)
 .bss           0x00000000        0x0 /Users/tal/devkitPro/devkitARM/bin/../lib/gcc/arm-none-eabi/4.7.1/be/libgcc.a(_divsi3.o)
 .data          0x00000000        0x0 /Users/tal/devkitPro/devkitARM/bin/../lib/gcc/arm-none-eabi/4.7.1/be/libgcc.a(_dvmd_tls.o)
 .bss           0x00000000        0x0 /Users/tal/devkitPro/devkitARM/bin/../lib/gcc/arm-none-eabi/4.7.1/be/libgcc.a(_dvmd_tls.o)

Memory Configuration

Name             Origin             Length             Attributes
sram             0xffff0000         0x00010000
sram2            0xfffe0000         0x00004000
pagetable        0xfffe4000         0x00004000
mem2             0x13f00000         0x00100000
*default*        0x00000000         0xffffffff

Linker script and memory map

                0x00000800                __stack_size = 0x800
                0x00000100                __irqstack_size = 0x100
                0x00000100                __excstack_size = 0x100
                0x13f00000                __mem2_area_start = ORIGIN (mem2)
                0x00100000                __mem2_area_size = 0x100000
                0x14000000                __mem2_area_end = (ORIGIN (mem2) + 0x100000)
                0xfffe4000                __page_table = ORIGIN (pagetable)

.rodata.mem2    0x13f00000       0x20
 *(.rodata.mem2)
 .rodata.mem2   0x13f00000       0x20 ipc.o
                0x13f00000                __ipc_info
                0x13f00020                . = ALIGN (0x4)

.data.mem2      0x13f00020        0x0
 *(.data.mem2)
                0x13f00020                . = ALIGN (0x4)

.bss.mem2       0x13f00080     0x12a4
                0x13f00080                __bss2_start = .
 *(.bss.mem2)
 .bss.mem2      0x13f00080      0x800 ipc.o
 .bss.mem2      0x13f00880      0x200 diskio.o
 .bss.mem2      0x13f00a80      0x880 nand.o
 .bss.mem2      0x13f01300       0x24 sdmmc.o
                0x13f01324                . = ALIGN (0x4)
                0x13f01324                __bss2_end = .

.ipcinfo        0x13fffffc        0x4
                0x13fffffc        0x4 LONG 0x13f00000 __ipc_info

.init           0xffff0000      0x100
 *(.init)
 .init          0xffff0000      0x100 start.o
                0xffff0000                _start
                0xffff00e4                debug_output
                0xffff0100                . = ALIGN (0x4)

.text           0xffff0100     0x6f70
 *(.text*)
 .text._main    0xffff0100      0x224 main.o
                0xffff0100                _main
 .text.ipc_post
                0xffff0324      0x12c ipc.o
                0xffff0324                ipc_post
 .text.ipc_enqueue_slow
                0xffff0450       0xe0 ipc.o
                0xffff0450                ipc_enqueue_slow
 .text.ipc_irq  0xffff0530      0x3bc ipc.o
                0xffff0530                ipc_irq
 .text.ipc_initialize
                0xffff08ec       0x78 ipc.o
                0xffff08ec                ipc_initialize
 .text.ipc_shutdown
                0xffff0964       0x20 ipc.o
                0xffff0964                ipc_shutdown
 .text.ipc_process_slow
                0xffff0984      0x18c ipc.o
                0xffff0984                ipc_process_slow
 .text.fmtstr   0xffff0b10      0x124 vsprintf.o
 .text.fmtint   0xffff0c34      0x378 vsprintf.o
 .text.vsnprintf
                0xffff0fac      0x5bc vsprintf.o
                0xffff0fac                vsnprintf
 .text.vsprintf
                0xffff1568       0x14 vsprintf.o
                0xffff1568                vsprintf
 .text.strnlen  0xffff157c       0x28 string.o
                0xffff157c                strnlen
 .text.memset   0xffff15a4       0x1c string.o
                0xffff15a4                memset
 .text.memcpy   0xffff15c0       0x20 string.o
                0xffff15c0                memcpy
 .text.memcmp   0xffff15e0       0x38 string.o
                0xffff15e0                memcmp
 .text.strlcpy  0xffff1618       0x50 string.o
                0xffff1618                strlcpy
 .text._gecko_command
                0xffff1668       0x48 gecko.o
 .text._gecko_getid
                0xffff16b0       0x68 gecko.o
 .text._gecko_recvbyte
                0xffff1718       0x30 gecko.o
 .text._gecko_checkrecv
                0xffff1748       0x18 gecko.o
 .text.gecko_init
                0xffff1760       0xa4 gecko.o
                0xffff1760                gecko_init
 .text.gecko_enable
                0xffff1804       0x10 gecko.o
                0xffff1804                gecko_enable
 .text.gecko_printf
                0xffff1814       0x84 gecko.o
                0xffff1814                gecko_printf
 .text.gecko_process
                0xffff1898      0x258 gecko.o
                0xffff1898                gecko_process
 .text._mc_read32
                0xffff1af0       0x68 memory.o
                0xffff1af0                _mc_read32
 .text._ahb_flush_to
                0xffff1b58      0x314 memory.o
                0xffff1b58                _ahb_flush_to
 .text.ahb_flush_to
                0xffff1e6c       0x34 memory.o
                0xffff1e6c                ahb_flush_to
 .text.ahb_flush_from
                0xffff1ea0       0xe0 memory.o
                0xffff1ea0                ahb_flush_from
 .text.dc_flushrange
                0xffff1f80       0x64 memory.o
                0xffff1f80                dc_flushrange
 .text.dc_invalidaterange
                0xffff1fe4       0x50 memory.o
                0xffff1fe4                dc_invalidaterange
 .text.dc_flushall
                0xffff2034       0x28 memory.o
                0xffff2034                dc_flushall
 .text.mem_protect
                0xffff205c       0x3c memory.o
                0xffff205c                mem_protect
 .text.dma_addr
                0xffff2098       0x48 memory.o
                0xffff2098                dma_addr
 .text.map_section
                0xffff20e0       0x38 memory.o
                0xffff20e0                map_section
 .text.mem_initialize
                0xffff2118      0x130 memory.o
                0xffff2118                mem_initialize
 .text.mem_shutdown
                0xffff2248       0x3c memory.o
                0xffff2248                mem_shutdown
 .text          0xffff2284       0x64 memory_asm.o
                0xffff2284                _dc_inval_entries
                0xffff2298                _dc_flush_entries
                0xffff22ac                _dc_flush
                0xffff22b8                _dc_inval
                0xffff22c4                _ic_inval
                0xffff22d0                _drain_write_buffer
                0xffff22dc                _tlb_inval
 .text          0xffff22e8       0x9c utils_asm.o
                0xffff22e8                memcpy32
                0xffff2304                memset32
                0xffff231c                memcpy16
                0xffff2338                memset16
                0xffff2350                memcpy8
                0xffff236c                memset8
 .text.udelay   0xffff2384       0x58 utils.o
                0xffff2384                udelay
 .text.sensorPrep
                0xffff23dc       0x3c utils.o
                0xffff23dc                sensorPrep
 .text.mem_cmp  0xffff2418       0x34 ff.o
 .text.clust2sect
                0xffff244c       0x24 ff.o
 .text.validate
                0xffff2470       0x40 ff.o
 .text.move_window
                0xffff24b0       0x4c ff.o
 .text.get_cluster
                0xffff24fc      0x130 ff.o
 .text.check_fs
                0xffff262c       0x98 ff.o
 .text.dir_seek.constprop.6
                0xffff26c4       0xb8 ff.o
 .text.f_mount  0xffff277c       0x3c ff.o
                0xffff277c                f_mount
 .text.f_open   0xffff27b8      0x680 ff.o
                0xffff27b8                f_open
 .text.f_read   0xffff2e38      0x1e4 ff.o
                0xffff2e38                f_read
 .text.f_lseek  0xffff301c      0x190 ff.o
                0xffff301c                f_lseek
 .text.disk_status
                0xffff31ac       0x18 diskio.o
                0xffff31ac                disk_status
 .text.disk_initialize
                0xffff31c4       0x24 diskio.o
                0xffff31c4                disk_initialize
 .text.disk_read
                0xffff31e8       0x60 diskio.o
                0xffff31e8                disk_read
 .text.bus_space_read_2
                0xffff3248       0x28 sdhc.o
 .text.bus_space_write_2
                0xffff3270       0x34 sdhc.o
 .text.sdhc_card_detect
                0xffff32a4       0x18 sdhc.o
                0xffff32a4                sdhc_card_detect
 .text.sdhc_bus_clock
                0xffff32bc      0x130 sdhc.o
                0xffff32bc                sdhc_bus_clock
 .text.sdhc_wait_state
                0xffff33ec       0x50 sdhc.o
                0xffff33ec                sdhc_wait_state
 .text.sdhc_start_command
                0xffff343c      0x1c0 sdhc.o
                0xffff343c                sdhc_start_command
 .text.sdhc_soft_reset
                0xffff35fc       0xa0 sdhc.o
                0xffff35fc                sdhc_soft_reset
 .text.sdhc_host_reset
                0xffff369c       0x9c sdhc.o
                0xffff369c                sdhc_host_reset
 .text.sdhc_bus_power
                0xffff3738       0xa8 sdhc.o
                0xffff3738                sdhc_bus_power
 .text.sdhc_shutdown
                0xffff37e0        0xc sdhc.o
                0xffff37e0                sdhc_shutdown
 .text.sdhc_host_found
                0xffff37ec       0xe8 sdhc.o
                0xffff37ec                sdhc_host_found
 .text.sdhc_wait_intr_debug
                0xffff38d4       0x9c sdhc.o
                0xffff38d4                sdhc_wait_intr_debug
 .text.sdhc_transfer_data
                0xffff3970       0xbc sdhc.o
                0xffff3970                sdhc_transfer_data
 .text.sdhc_exec_command
                0xffff3a2c      0x164 sdhc.o
                0xffff3a2c                sdhc_exec_command
 .text.sdhc_intr
                0xffff3b90      0x140 sdhc.o
                0xffff3b90                sdhc_intr
 .text.sdhc_irq
                0xffff3cd0        0x4 sdhc.o
                0xffff3cd0                sdhc_irq
 .text.sdhc_init
                0xffff3cd4       0x24 sdhc.o
                0xffff3cd4                sdhc_init
 .text.sdhc_exit
                0xffff3cf8       0x14 sdhc.o
                0xffff3cf8                sdhc_exit
 .text.sdhc_ipc
                0xffff3d0c       0x40 sdhc.o
                0xffff3d0c                sdhc_ipc
 .text._check_physrange
                0xffff3d4c       0x5c powerpc_elf.o
 .text.virtualToPhysical
                0xffff3da8       0x20 powerpc_elf.o
                0xffff3da8                virtualToPhysical
 .text.powerpc_load_dol
                0xffff3dc8      0x1b0 powerpc_elf.o
                0xffff3dc8                powerpc_load_dol
 .text.powerpc_boot_file
                0xffff3f78      0x584 powerpc_elf.o
                0xffff3f78                powerpc_boot_file
 .text.powerpc_boot_mem
                0xffff44fc      0x1d4 powerpc_elf.o
                0xffff44fc                powerpc_boot_mem
 .text.powerpc_upload_stub
                0xffff46d0      0x874 powerpc.o
                0xffff46d0                powerpc_upload_stub
 .text.powerpc_hang
                0xffff4f44       0x54 powerpc.o
                0xffff4f44                powerpc_hang
 .text.powerpc_reset
                0xffff4f98       0x98 powerpc.o
                0xffff4f98                powerpc_reset
 .text.powerpc_ipc
                0xffff5030       0xd0 powerpc.o
                0xffff5030                powerpc_ipc
 .text.panic2   0xffff5100       0xb0 panic.o
                0xffff5100                panic2
 .text.irq_initialize
                0xffff51b0       0x50 irq.o
                0xffff51b0                irq_initialize
 .text.irq_shutdown
                0xffff5200       0x20 irq.o
                0xffff5200                irq_shutdown
 .text.irq_handler
                0xffff5220      0x15c irq.o
                0xffff5220                irq_handler
 .text.irq_enable
                0xffff537c       0x20 irq.o
                0xffff537c                irq_enable
 .text.irq_disable
                0xffff539c       0x20 irq.o
                0xffff539c                irq_disable
 .text.irq_set_alarm
                0xffff53bc       0x40 irq.o
                0xffff53bc                irq_set_alarm
 .text          0xffff53fc       0x50 irq_asm.o
                0xffff53fc                irq_setup_stack
                0xffff5410                v_irq
                0xffff5420                irq_kill
                0xffff5434                irq_restore
 .text.exception_initialize
                0xffff544c       0x18 exception.o
                0xffff544c                exception_initialize
 .text.exc_handler
                0xffff5464      0x274 exception.o
                0xffff5464                exc_handler
 .text          0xffff56d8      0x138 exception_asm.o
                0xffff56d8                exc_setup_stack
                0xffff5708                v_undf
                0xffff5734                v_swi
                0xffff5760                v_instr_abrt
                0xffff578c                v_data_abrt
                0xffff57b8                v_reserved
                0xffff57e4                v_fiq
 .text.send_bits
                0xffff5810       0x88 seeprom.o
                0xffff5810                send_bits
 .text.recv_bits
                0xffff5898       0x6c seeprom.o
                0xffff5898                recv_bits
 .text.seeprom_read
                0xffff5904       0xa8 seeprom.o
                0xffff5904                seeprom_read
 .text.crypto_read_otp
                0xffff59ac       0x3c crypto.o
                0xffff59ac                crypto_read_otp
 .text.crypto_read_seeprom
                0xffff59e8       0x14 crypto.o
                0xffff59e8                crypto_read_seeprom
 .text.crypto_initialize
                0xffff59fc       0x34 crypto.o
                0xffff59fc                crypto_initialize
 .text.crypto_ipc
                0xffff5a30       0x88 crypto.o
                0xffff5a30                crypto_ipc
 .text.aes_reset
                0xffff5ab8       0x20 crypto.o
                0xffff5ab8                aes_reset
 .text.aes_set_iv
                0xffff5ad8       0x24 crypto.o
                0xffff5ad8                aes_set_iv
 .text.aes_set_key
                0xffff5afc       0x24 crypto.o
                0xffff5afc                aes_set_key
 .text.aes_decrypt
                0xffff5b20       0xf4 crypto.o
                0xffff5b20                aes_decrypt
 .text.aes_ipc  0xffff5c14       0x88 crypto.o
                0xffff5c14                aes_ipc
 .text.__nand_wait
                0xffff5c9c       0x48 nand.o
                0xffff5c9c                __nand_wait
 .text.__nand_set_address
                0xffff5ce4       0x2c nand.o
                0xffff5ce4                __nand_set_address
 .text.__nand_setup_dma
                0xffff5d10       0x5c nand.o
                0xffff5d10                __nand_setup_dma
 .text.nand_reset
                0xffff5d6c       0x50 nand.o
                0xffff5d6c                nand_reset
 .text.nand_get_id
                0xffff5dbc       0x68 nand.o
                0xffff5dbc                nand_get_id
 .text.nand_get_status
                0xffff5e24       0x58 nand.o
                0xffff5e24                nand_get_status
 .text.nand_read_page
                0xffff5e7c       0xa8 nand.o
                0xffff5e7c                nand_read_page
 .text.nand_write_page
                0xffff5f24       0xe4 nand.o
                0xffff5f24                nand_write_page
 .text.nand_erase_block
                0xffff6008       0x94 nand.o
                0xffff6008                nand_erase_block
 .text.nand_initialize
                0xffff609c       0x24 nand.o
                0xffff609c                nand_initialize
 .text.nand_correct
                0xffff60c0       0xe4 nand.o
                0xffff60c0                nand_correct
 .text.nand_irq
                0xffff61a4      0x138 nand.o
                0xffff61a4                nand_irq
 .text.nand_ipc
                0xffff62dc      0x1ec nand.o
                0xffff62dc                nand_ipc
 .text.sdmmc_select
                0xffff64c8       0x94 sdmmc.o
                0xffff64c8                sdmmc_select
 .text.sdmmc_needs_discover
                0xffff655c      0x51c sdmmc.o
                0xffff655c                sdmmc_needs_discover
 .text.sdmmc_attach
                0xffff6a78       0x44 sdmmc.o
                0xffff6a78                sdmmc_attach
 .text.sdmmc_check_card
                0xffff6abc       0x30 sdmmc.o
                0xffff6abc                sdmmc_check_card
 .text.sdmmc_ack_card
                0xffff6aec       0x20 sdmmc.o
                0xffff6aec                sdmmc_ack_card
 .text.sdmmc_read
                0xffff6b0c       0xf4 sdmmc.o
                0xffff6b0c                sdmmc_read
 .text.sdmmc_write
                0xffff6c00       0xf4 sdmmc.o
                0xffff6c00                sdmmc_write
 .text.sdmmc_get_sectors
                0xffff6cf4       0x48 sdmmc.o
                0xffff6cf4                sdmmc_get_sectors
 .text.sdmmc_ipc
                0xffff6d3c       0xd4 sdmmc.o
                0xffff6d3c                sdmmc_ipc
 .text          0xffff6e10      0x114 /Users/tal/devkitPro/devkitARM/bin/../lib/gcc/arm-none-eabi/4.7.1/be/libgcc.a(_udivsi3.o)
                0xffff6e10                __udivsi3
                0xffff6e10                __aeabi_uidiv
                0xffff6f04                __aeabi_uidivmod
 .text          0xffff6f24      0x148 /Users/tal/devkitPro/devkitARM/bin/../lib/gcc/arm-none-eabi/4.7.1/be/libgcc.a(_divsi3.o)
                0xffff6f24                __aeabi_idiv
                0xffff6f24                __divsi3
                0xffff704c                __aeabi_idivmod
 .text          0xffff706c        0x4 /Users/tal/devkitPro/devkitARM/bin/../lib/gcc/arm-none-eabi/4.7.1/be/libgcc.a(_dvmd_tls.o)
                0xffff706c                __aeabi_ldiv0
                0xffff706c                __aeabi_idiv0
 *(.text.*)
 *(.gnu.warning)
 *(.gnu.linkonce.t*)
 *(.glue_7)
 .glue_7        0x00000000        0x0 linker stubs
 *(.glue_7t)
 .glue_7t       0x00000000        0x0 linker stubs
                0xffff7070                . = ALIGN (0x4)

.vfp11_veneer   0xffff7070        0x0
 .vfp11_veneer  0x00000000        0x0 linker stubs

.v4_bx          0xffff7070        0x0
 .v4_bx         0x00000000        0x0 linker stubs

.iplt           0xffff7070        0x0
 .iplt          0x00000000        0x0 start.o

.rodata         0xfffe0000     0x1084
 *(.rodata)
 .rodata        0xfffe0000       0x34 sdhc.o
 .rodata        0xfffe0034        0xa powerpc_elf.o
 *fill*         0xfffe003e        0x2 00
 .rodata        0xfffe0040       0x70 sdmmc.o
 *all.rodata*(*)
 *(.roda)
 *(.rodata.*)
 .rodata.str1.1
                0xfffe00b0      0x23e main.o
 .rodata.str1.1
                0xfffe02ee      0x103 ipc.o
 .rodata.str1.1
                0xfffe03f1       0x2f vsprintf.o
 .rodata.str1.1
                0xfffe0420       0x24 gecko.o
 .rodata.str1.1
                0xfffe0444       0xe9 memory.o
 .rodata.str1.1
                0xfffe052d       0x1a ff.o
 .rodata.str1.1
                0xfffe0547      0x184 sdhc.o
 .rodata.str1.1
                0xfffe06cb      0x20d powerpc_elf.o
 .rodata.str1.1
                0xfffe08d8       0x43 powerpc.o
                                 0x64 (size before relaxing)
 .rodata.str1.1
                0xfffe091b       0x15 irq.o
 .rodata.str1.1
                0xfffe0930      0x240 exception.o
 .rodata.str1.1
                0xfffe0b70       0x4b crypto.o
 .rodata.str1.1
                0xfffe0bbb      0x1cb nand.o
 .rodata.str1.1
                0xfffe0d86      0x2fd sdmmc.o
                                0x2ff (size before relaxing)
 *(.gnu.linkonce.r*)
                0xfffe1084                . = ALIGN (0x4)
 *fill*         0xfffe1083        0x1 00

.rel.dyn        0xfffe1084        0x0
 .rel.iplt      0x00000000        0x0 start.o

.data           0xfffe1084       0x78
 *(.data)
 .data          0xfffe1084       0x74 exception.o
                0xfffe1084                exceptions
                0xfffe10a8                aborts
                0xfffe10e8                domvalid
 .data          0xfffe10f8        0x4 nand.o
 *(.data.*)
 *(.gnu.linkonce.d*)
                0xfffe10fc                . = ALIGN (0x4)

.igot.plt       0xfffe10fc        0x0
 .igot.plt      0x00000000        0x0 start.o

.bss            0xfffe10fc     0x15a4
                0xfffe10fc                __bss_start = .
 *(.dynbss)
 *(.gnu.linkonce.b*)
 *(.bss*)
 .bss           0xfffe10fc     0x100c ipc.o
 .bss           0xfffe2108       0x1c gecko.o
 .bss           0xfffe2124        0x8 ff.o
 .bss           0xfffe212c      0x174 powerpc_elf.o
 .bss           0xfffe22a0        0x4 irq.o
 .bss           0xfffe22a4        0x4 crypto.o
 .bss           0xfffe22a8       0x28 nand.o
 *(COMMON)
 COMMON         0xfffe22d0      0x224 main.o
                0xfffe22d0                fatfs
 COMMON         0xfffe24f4       0x2c sdhc.o
                0xfffe24f4                sc_host
 COMMON         0xfffe2520      0x180 crypto.o
                0xfffe2520                otp
                0xfffe25a0                seeprom
                0xfffe26a0                . = ALIGN (0x4)
                0xfffe26a0                __bss_end = .

.stack          0xfffe26a0      0xa00
                0xfffe26a0                . = ALIGN (0x10)
                0xfffe26a0                __stack_end = .
                0xfffe2ea0                . = (. + __stack_size)
 *fill*         0xfffe26a0      0x800 00
                0xfffe2ea0                . = ALIGN (0x10)
                0xfffe2ea0                __stack_addr = .
                0xfffe2ea0                __irqstack_end = .
                0xfffe2fa0                . = (. + __irqstack_size)
 *fill*         0xfffe2ea0      0x100 00
                0xfffe2fa0                . = ALIGN (0x10)
                0xfffe2fa0                __irqstack_addr = .
                0xfffe2fa0                __excstack_end = .
                0xfffe30a0                . = (. + __excstack_size)
 *fill*         0xfffe2fa0      0x100 00
                0xfffe30a0                . = ALIGN (0x10)
                0xfffe30a0                __excstack_addr = .

/DISCARD/
 *(.ARM.exidx*)
 *(.ARM.extab*)
LOAD start.o
LOAD main.o
LOAD ipc.o
LOAD vsprintf.o
LOAD string.o
LOAD gecko.o
LOAD memory.o
LOAD memory_asm.o
LOAD utils_asm.o
LOAD utils.o
LOAD ff.o
LOAD diskio.o
LOAD sdhc.o
LOAD powerpc_elf.o
LOAD powerpc.o
LOAD panic.o
LOAD irq.o
LOAD irq_asm.o
LOAD exception.o
LOAD exception_asm.o
LOAD seeprom.o
LOAD crypto.o
LOAD nand.o
LOAD boot2.o
LOAD ldhack.o
LOAD sdmmc.o
LOAD /Users/tal/devkitPro/devkitARM/bin/../lib/gcc/arm-none-eabi/4.7.1/be/libgcc.a
OUTPUT(target/armboot-sym.elf elf32-bigarm)

.ARM.attributes
                0x00000000       0x30
 .ARM.attributes
                0x00000000       0x24 start.o
 .ARM.attributes
                0x00000024       0x34 main.o
 .ARM.attributes
                0x00000058       0x34 ipc.o
 .ARM.attributes
                0x0000008c       0x34 vsprintf.o
 .ARM.attributes
                0x000000c0       0x34 string.o
 .ARM.attributes
                0x000000f4       0x34 gecko.o
 .ARM.attributes
                0x00000128       0x34 memory.o
 .ARM.attributes
                0x0000015c       0x24 memory_asm.o
 .ARM.attributes
                0x00000180       0x24 utils_asm.o
 .ARM.attributes
                0x000001a4       0x34 utils.o
 .ARM.attributes
                0x000001d8       0x34 ff.o
 .ARM.attributes
                0x0000020c       0x34 diskio.o
 .ARM.attributes
                0x00000240       0x34 sdhc.o
 .ARM.attributes
                0x00000274       0x34 powerpc_elf.o
 .ARM.attributes
                0x000002a8       0x34 powerpc.o
 .ARM.attributes
                0x000002dc       0x34 panic.o
 .ARM.attributes
                0x00000310       0x34 irq.o
 .ARM.attributes
                0x00000344       0x24 irq_asm.o
 .ARM.attributes
                0x00000368       0x34 exception.o
 .ARM.attributes
                0x0000039c       0x24 exception_asm.o
 .ARM.attributes
                0x000003c0       0x34 seeprom.o
 .ARM.attributes
                0x000003f4       0x34 crypto.o
 .ARM.attributes
                0x00000428       0x34 nand.o
 .ARM.attributes
                0x0000045c       0x34 sdmmc.o
 .ARM.attributes
                0x00000490       0x1a /Users/tal/devkitPro/devkitARM/bin/../lib/gcc/arm-none-eabi/4.7.1/be/libgcc.a(_udivsi3.o)
 .ARM.attributes
                0x000004aa       0x1a /Users/tal/devkitPro/devkitARM/bin/../lib/gcc/arm-none-eabi/4.7.1/be/libgcc.a(_divsi3.o)
 .ARM.attributes
                0x000004c4       0x18 /Users/tal/devkitPro/devkitARM/bin/../lib/gcc/arm-none-eabi/4.7.1/be/libgcc.a(_dvmd_tls.o)

.comment        0x00000000       0x22
 .comment       0x00000000       0x22 main.o
                                 0x23 (size before relaxing)
 .comment       0x00000000       0x23 ipc.o
 .comment       0x00000000       0x23 vsprintf.o
 .comment       0x00000000       0x23 string.o
 .comment       0x00000000       0x23 gecko.o
 .comment       0x00000000       0x23 memory.o
 .comment       0x00000000       0x23 utils.o
 .comment       0x00000000       0x23 ff.o
 .comment       0x00000000       0x23 diskio.o
 .comment       0x00000000       0x23 sdhc.o
 .comment       0x00000000       0x23 powerpc_elf.o
 .comment       0x00000000       0x23 powerpc.o
 .comment       0x00000000       0x23 panic.o
 .comment       0x00000000       0x23 irq.o
 .comment       0x00000000       0x23 exception.o
 .comment       0x00000000       0x23 seeprom.o
 .comment       0x00000000       0x23 crypto.o
 .comment       0x00000000       0x23 nand.o
 .comment       0x00000000       0x23 sdmmc.o
